ARM GAS  D:\Programme\Cygwin\tmp\ccvJI6eq.s 			page 1


   1              		.syntax unified
   2              		.cpu cortex-m4
   3              		.eabi_attribute 27, 1
   4              		.eabi_attribute 28, 1
   5              		.fpu fpv4-sp-d16
   6              		.eabi_attribute 20, 1
   7              		.eabi_attribute 21, 1
   8              		.eabi_attribute 23, 3
   9              		.eabi_attribute 24, 1
  10              		.eabi_attribute 25, 1
  11              		.eabi_attribute 26, 1
  12              		.eabi_attribute 30, 1
  13              		.eabi_attribute 34, 1
  14              		.eabi_attribute 18, 4
  15              		.thumb
  16              		.syntax unified
  17              		.file	"main.c"
  18              		.text
  19              	.Ltext0:
  20              		.cfi_sections	.debug_frame
  21              		.section	.text.MX_GPIO_Init,"ax",%progbits
  22              		.align	2
  23              		.thumb
  24              		.thumb_func
  26              	MX_GPIO_Init:
  27              	.LFB130:
  28              		.file 1 "Src/main.c"
   1:Src/main.c    **** /* USER CODE BEGIN Header */
   2:Src/main.c    **** /**
   3:Src/main.c    ****   ******************************************************************************
   4:Src/main.c    ****   * @file           : main.c
   5:Src/main.c    ****   * @brief          : Main program body
   6:Src/main.c    ****   ******************************************************************************
   7:Src/main.c    ****   * @attention
   8:Src/main.c    ****   *
   9:Src/main.c    ****   * <h2><center>&copy; Copyright (c) 2020 STMicroelectronics.
  10:Src/main.c    ****   * All rights reserved.</center></h2>
  11:Src/main.c    ****   *
  12:Src/main.c    ****   * This software component is licensed by ST under Ultimate Liberty license
  13:Src/main.c    ****   * SLA0044, the "License"; You may not use this file except in compliance with
  14:Src/main.c    ****   * the License. You may obtain a copy of the License at:
  15:Src/main.c    ****   *                             www.st.com/SLA0044
  16:Src/main.c    ****   *
  17:Src/main.c    ****   ******************************************************************************
  18:Src/main.c    ****   */
  19:Src/main.c    **** /* USER CODE END Header */
  20:Src/main.c    **** 
  21:Src/main.c    **** /* Includes ------------------------------------------------------------------*/
  22:Src/main.c    **** #include "main.h"
  23:Src/main.c    **** #include "cmsis_os.h"
  24:Src/main.c    **** 
  25:Src/main.c    **** /* Private includes ----------------------------------------------------------*/
  26:Src/main.c    **** /* USER CODE BEGIN Includes */
  27:Src/main.c    **** 
  28:Src/main.c    **** /* USER CODE END Includes */
  29:Src/main.c    **** 
  30:Src/main.c    **** /* Private typedef -----------------------------------------------------------*/
ARM GAS  D:\Programme\Cygwin\tmp\ccvJI6eq.s 			page 2


  31:Src/main.c    **** /* USER CODE BEGIN PTD */
  32:Src/main.c    **** 
  33:Src/main.c    **** /* USER CODE END PTD */
  34:Src/main.c    **** 
  35:Src/main.c    **** /* Private define ------------------------------------------------------------*/
  36:Src/main.c    **** /* USER CODE BEGIN PD */
  37:Src/main.c    **** /* USER CODE END PD */
  38:Src/main.c    **** 
  39:Src/main.c    **** /* Private macro -------------------------------------------------------------*/
  40:Src/main.c    **** /* USER CODE BEGIN PM */
  41:Src/main.c    **** 
  42:Src/main.c    **** /* USER CODE END PM */
  43:Src/main.c    **** 
  44:Src/main.c    **** /* Private variables ---------------------------------------------------------*/
  45:Src/main.c    **** UART_HandleTypeDef huart2;
  46:Src/main.c    **** 
  47:Src/main.c    **** /* Definitions for defaultTask */
  48:Src/main.c    **** osThreadId_t defaultTaskHandle;
  49:Src/main.c    **** const osThreadAttr_t defaultTask_attributes = {
  50:Src/main.c    ****   .name = "defaultTask",
  51:Src/main.c    ****   .priority = (osPriority_t) osPriorityNormal,
  52:Src/main.c    ****   .stack_size = 128
  53:Src/main.c    **** };
  54:Src/main.c    **** /* Definitions for blinkLEDTask */
  55:Src/main.c    **** osThreadId_t blinkLEDTaskHandle;
  56:Src/main.c    **** const osThreadAttr_t blinkLEDTask_attributes = {
  57:Src/main.c    ****   .name = "blinkLEDTask",
  58:Src/main.c    ****   .priority = (osPriority_t) osPriorityNormal1,
  59:Src/main.c    ****   .stack_size = 128
  60:Src/main.c    **** };
  61:Src/main.c    **** /* USER CODE BEGIN PV */
  62:Src/main.c    **** osThreadId_t comUSBTaskHandle;
  63:Src/main.c    **** const osThreadAttr_t comUSBTask_attributes = {
  64:Src/main.c    ****   .name = "comUSBTask",
  65:Src/main.c    ****   .priority = (osPriority_t) osPriorityNormal1,
  66:Src/main.c    ****   .stack_size = 128
  67:Src/main.c    **** };
  68:Src/main.c    **** /* USER CODE END PV */
  69:Src/main.c    **** 
  70:Src/main.c    **** /* Private function prototypes -----------------------------------------------*/
  71:Src/main.c    **** void SystemClock_Config(void);
  72:Src/main.c    **** static void MX_GPIO_Init(void);
  73:Src/main.c    **** static void MX_USART2_UART_Init(void);
  74:Src/main.c    **** void StartDefaultTask(void *argument);
  75:Src/main.c    **** void StartTask02(void *argument);
  76:Src/main.c    **** 
  77:Src/main.c    **** /* USER CODE BEGIN PFP */
  78:Src/main.c    **** void StartComUSBTask(void *argument);
  79:Src/main.c    **** /* USER CODE END PFP */
  80:Src/main.c    **** 
  81:Src/main.c    **** /* Private user code ---------------------------------------------------------*/
  82:Src/main.c    **** /* USER CODE BEGIN 0 */
  83:Src/main.c    **** 
  84:Src/main.c    **** /* USER CODE END 0 */
  85:Src/main.c    **** 
  86:Src/main.c    **** /**
  87:Src/main.c    ****   * @brief  The application entry point.
ARM GAS  D:\Programme\Cygwin\tmp\ccvJI6eq.s 			page 3


  88:Src/main.c    ****   * @retval int
  89:Src/main.c    ****   */
  90:Src/main.c    **** int main(void)
  91:Src/main.c    **** {
  92:Src/main.c    ****   /* USER CODE BEGIN 1 */
  93:Src/main.c    **** 
  94:Src/main.c    ****   /* USER CODE END 1 */
  95:Src/main.c    ****   
  96:Src/main.c    **** 
  97:Src/main.c    ****   /* MCU Configuration--------------------------------------------------------*/
  98:Src/main.c    **** 
  99:Src/main.c    ****   /* Reset of all peripherals, Initializes the Flash interface and the Systick. */
 100:Src/main.c    ****   HAL_Init();
 101:Src/main.c    **** 
 102:Src/main.c    ****   /* USER CODE BEGIN Init */
 103:Src/main.c    **** 
 104:Src/main.c    ****   /* USER CODE END Init */
 105:Src/main.c    **** 
 106:Src/main.c    ****   /* Configure the system clock */
 107:Src/main.c    ****   SystemClock_Config();
 108:Src/main.c    **** 
 109:Src/main.c    ****   /* USER CODE BEGIN SysInit */
 110:Src/main.c    **** 
 111:Src/main.c    ****   /* USER CODE END SysInit */
 112:Src/main.c    **** 
 113:Src/main.c    ****   /* Initialize all configured peripherals */
 114:Src/main.c    ****   MX_GPIO_Init();
 115:Src/main.c    ****   MX_USART2_UART_Init();
 116:Src/main.c    ****   /* USER CODE BEGIN 2 */
 117:Src/main.c    **** 
 118:Src/main.c    ****   /* USER CODE END 2 */
 119:Src/main.c    ****   /* Init scheduler */
 120:Src/main.c    ****   osKernelInitialize();
 121:Src/main.c    **** 
 122:Src/main.c    ****   /* USER CODE BEGIN RTOS_MUTEX */
 123:Src/main.c    ****   /* add mutexes, ... */
 124:Src/main.c    ****   /* USER CODE END RTOS_MUTEX */
 125:Src/main.c    **** 
 126:Src/main.c    ****   /* USER CODE BEGIN RTOS_SEMAPHORES */
 127:Src/main.c    ****   /* add semaphores, ... */
 128:Src/main.c    ****   /* USER CODE END RTOS_SEMAPHORES */
 129:Src/main.c    **** 
 130:Src/main.c    ****   /* USER CODE BEGIN RTOS_TIMERS */
 131:Src/main.c    ****   /* start timers, add new ones, ... */
 132:Src/main.c    ****   /* USER CODE END RTOS_TIMERS */
 133:Src/main.c    **** 
 134:Src/main.c    ****   /* USER CODE BEGIN RTOS_QUEUES */
 135:Src/main.c    ****   /* add queues, ... */
 136:Src/main.c    ****   /* USER CODE END RTOS_QUEUES */
 137:Src/main.c    **** 
 138:Src/main.c    ****   /* Create the thread(s) */
 139:Src/main.c    ****   /* creation of defaultTask */
 140:Src/main.c    ****   defaultTaskHandle = osThreadNew(StartDefaultTask, NULL, &defaultTask_attributes);
 141:Src/main.c    **** 
 142:Src/main.c    ****   /* creation of blinkLEDTask */
 143:Src/main.c    ****   blinkLEDTaskHandle = osThreadNew(StartTask02, NULL, &blinkLEDTask_attributes);
 144:Src/main.c    **** 
ARM GAS  D:\Programme\Cygwin\tmp\ccvJI6eq.s 			page 4


 145:Src/main.c    ****   /* USER CODE BEGIN RTOS_THREADS */
 146:Src/main.c    ****   /* add threads, ... */
 147:Src/main.c    ****   comUSBTaskHandle = osThreadNew(StartComUSBTask, NULL, &comUSBTask_attributes);
 148:Src/main.c    **** 
 149:Src/main.c    ****   /* USER CODE END RTOS_THREADS */
 150:Src/main.c    **** 
 151:Src/main.c    ****   /* Start scheduler */
 152:Src/main.c    ****   osKernelStart();
 153:Src/main.c    ****  
 154:Src/main.c    ****   /* We should never get here as control is now taken by the scheduler */
 155:Src/main.c    **** 
 156:Src/main.c    ****   /* Infinite loop */
 157:Src/main.c    ****   /* USER CODE BEGIN WHILE */
 158:Src/main.c    ****   while (1)
 159:Src/main.c    ****   {
 160:Src/main.c    ****     /* USER CODE END WHILE */
 161:Src/main.c    **** 
 162:Src/main.c    ****     /* USER CODE BEGIN 3 */
 163:Src/main.c    ****   }
 164:Src/main.c    ****   /* USER CODE END 3 */
 165:Src/main.c    **** }
 166:Src/main.c    **** 
 167:Src/main.c    **** /**
 168:Src/main.c    ****   * @brief System Clock Configuration
 169:Src/main.c    ****   * @retval None
 170:Src/main.c    ****   */
 171:Src/main.c    **** void SystemClock_Config(void)
 172:Src/main.c    **** {
 173:Src/main.c    ****   RCC_OscInitTypeDef RCC_OscInitStruct = {0};
 174:Src/main.c    ****   RCC_ClkInitTypeDef RCC_ClkInitStruct = {0};
 175:Src/main.c    **** 
 176:Src/main.c    ****   /** Initializes the CPU, AHB and APB busses clocks 
 177:Src/main.c    ****   */
 178:Src/main.c    ****   RCC_OscInitStruct.OscillatorType = RCC_OSCILLATORTYPE_HSI;
 179:Src/main.c    ****   RCC_OscInitStruct.HSIState = RCC_HSI_ON;
 180:Src/main.c    ****   RCC_OscInitStruct.HSICalibrationValue = RCC_HSICALIBRATION_DEFAULT;
 181:Src/main.c    ****   RCC_OscInitStruct.PLL.PLLState = RCC_PLL_ON;
 182:Src/main.c    ****   RCC_OscInitStruct.PLL.PLLSource = RCC_PLLSOURCE_HSI;
 183:Src/main.c    ****   RCC_OscInitStruct.PLL.PLLMUL = RCC_PLL_MUL16;
 184:Src/main.c    ****   if (HAL_RCC_OscConfig(&RCC_OscInitStruct) != HAL_OK)
 185:Src/main.c    ****   {
 186:Src/main.c    ****     Error_Handler();
 187:Src/main.c    ****   }
 188:Src/main.c    ****   /** Initializes the CPU, AHB and APB busses clocks 
 189:Src/main.c    ****   */
 190:Src/main.c    ****   RCC_ClkInitStruct.ClockType = RCC_CLOCKTYPE_HCLK|RCC_CLOCKTYPE_SYSCLK
 191:Src/main.c    ****                               |RCC_CLOCKTYPE_PCLK1|RCC_CLOCKTYPE_PCLK2;
 192:Src/main.c    ****   RCC_ClkInitStruct.SYSCLKSource = RCC_SYSCLKSOURCE_PLLCLK;
 193:Src/main.c    ****   RCC_ClkInitStruct.AHBCLKDivider = RCC_SYSCLK_DIV1;
 194:Src/main.c    ****   RCC_ClkInitStruct.APB1CLKDivider = RCC_HCLK_DIV2;
 195:Src/main.c    ****   RCC_ClkInitStruct.APB2CLKDivider = RCC_HCLK_DIV1;
 196:Src/main.c    **** 
 197:Src/main.c    ****   if (HAL_RCC_ClockConfig(&RCC_ClkInitStruct, FLASH_LATENCY_2) != HAL_OK)
 198:Src/main.c    ****   {
 199:Src/main.c    ****     Error_Handler();
 200:Src/main.c    ****   }
 201:Src/main.c    **** }
ARM GAS  D:\Programme\Cygwin\tmp\ccvJI6eq.s 			page 5


 202:Src/main.c    **** 
 203:Src/main.c    **** /**
 204:Src/main.c    ****   * @brief USART2 Initialization Function
 205:Src/main.c    ****   * @param None
 206:Src/main.c    ****   * @retval None
 207:Src/main.c    ****   */
 208:Src/main.c    **** static void MX_USART2_UART_Init(void)
 209:Src/main.c    **** {
 210:Src/main.c    **** 
 211:Src/main.c    ****   /* USER CODE BEGIN USART2_Init 0 */
 212:Src/main.c    **** 
 213:Src/main.c    ****   /* USER CODE END USART2_Init 0 */
 214:Src/main.c    **** 
 215:Src/main.c    ****   /* USER CODE BEGIN USART2_Init 1 */
 216:Src/main.c    **** 
 217:Src/main.c    ****   /* USER CODE END USART2_Init 1 */
 218:Src/main.c    ****   huart2.Instance = USART2;
 219:Src/main.c    ****   huart2.Init.BaudRate = 38400;
 220:Src/main.c    ****   huart2.Init.WordLength = UART_WORDLENGTH_8B;
 221:Src/main.c    ****   huart2.Init.StopBits = UART_STOPBITS_1;
 222:Src/main.c    ****   huart2.Init.Parity = UART_PARITY_NONE;
 223:Src/main.c    ****   huart2.Init.Mode = UART_MODE_TX_RX;
 224:Src/main.c    ****   huart2.Init.HwFlowCtl = UART_HWCONTROL_NONE;
 225:Src/main.c    ****   huart2.Init.OverSampling = UART_OVERSAMPLING_16;
 226:Src/main.c    ****   huart2.Init.OneBitSampling = UART_ONE_BIT_SAMPLE_DISABLE;
 227:Src/main.c    ****   huart2.AdvancedInit.AdvFeatureInit = UART_ADVFEATURE_NO_INIT;
 228:Src/main.c    ****   if (HAL_UART_Init(&huart2) != HAL_OK)
 229:Src/main.c    ****   {
 230:Src/main.c    ****     Error_Handler();
 231:Src/main.c    ****   }
 232:Src/main.c    ****   /* USER CODE BEGIN USART2_Init 2 */
 233:Src/main.c    **** 
 234:Src/main.c    ****   /* USER CODE END USART2_Init 2 */
 235:Src/main.c    **** 
 236:Src/main.c    **** }
 237:Src/main.c    **** 
 238:Src/main.c    **** /**
 239:Src/main.c    ****   * @brief GPIO Initialization Function
 240:Src/main.c    ****   * @param None
 241:Src/main.c    ****   * @retval None
 242:Src/main.c    ****   */
 243:Src/main.c    **** static void MX_GPIO_Init(void)
 244:Src/main.c    **** {
  29              		.loc 1 244 0
  30              		.cfi_startproc
  31              		@ args = 0, pretend = 0, frame = 40
  32              		@ frame_needed = 0, uses_anonymous_args = 0
  33 0000 70B5     		push	{r4, r5, r6, lr}
  34              	.LCFI0:
  35              		.cfi_def_cfa_offset 16
  36              		.cfi_offset 4, -16
  37              		.cfi_offset 5, -12
  38              		.cfi_offset 6, -8
  39              		.cfi_offset 14, -4
  40 0002 8AB0     		sub	sp, sp, #40
  41              	.LCFI1:
  42              		.cfi_def_cfa_offset 56
ARM GAS  D:\Programme\Cygwin\tmp\ccvJI6eq.s 			page 6


 245:Src/main.c    ****   GPIO_InitTypeDef GPIO_InitStruct = {0};
  43              		.loc 1 245 0
  44 0004 0024     		movs	r4, #0
  45 0006 0594     		str	r4, [sp, #20]
  46 0008 0694     		str	r4, [sp, #24]
  47 000a 0794     		str	r4, [sp, #28]
  48 000c 0894     		str	r4, [sp, #32]
  49 000e 0994     		str	r4, [sp, #36]
  50              	.LBB2:
 246:Src/main.c    **** 
 247:Src/main.c    ****   /* GPIO Ports Clock Enable */
 248:Src/main.c    ****   __HAL_RCC_GPIOC_CLK_ENABLE();
  51              		.loc 1 248 0
  52 0010 204B     		ldr	r3, .L3
  53 0012 5A69     		ldr	r2, [r3, #20]
  54 0014 42F40022 		orr	r2, r2, #524288
  55 0018 5A61     		str	r2, [r3, #20]
  56 001a 5A69     		ldr	r2, [r3, #20]
  57 001c 02F40022 		and	r2, r2, #524288
  58 0020 0192     		str	r2, [sp, #4]
  59 0022 019A     		ldr	r2, [sp, #4]
  60              	.LBE2:
  61              	.LBB3:
 249:Src/main.c    ****   __HAL_RCC_GPIOF_CLK_ENABLE();
  62              		.loc 1 249 0
  63 0024 5A69     		ldr	r2, [r3, #20]
  64 0026 42F48002 		orr	r2, r2, #4194304
  65 002a 5A61     		str	r2, [r3, #20]
  66 002c 5A69     		ldr	r2, [r3, #20]
  67 002e 02F48002 		and	r2, r2, #4194304
  68 0032 0292     		str	r2, [sp, #8]
  69 0034 029A     		ldr	r2, [sp, #8]
  70              	.LBE3:
  71              	.LBB4:
 250:Src/main.c    ****   __HAL_RCC_GPIOA_CLK_ENABLE();
  72              		.loc 1 250 0
  73 0036 5A69     		ldr	r2, [r3, #20]
  74 0038 42F40032 		orr	r2, r2, #131072
  75 003c 5A61     		str	r2, [r3, #20]
  76 003e 5A69     		ldr	r2, [r3, #20]
  77 0040 02F40032 		and	r2, r2, #131072
  78 0044 0392     		str	r2, [sp, #12]
  79 0046 039A     		ldr	r2, [sp, #12]
  80              	.LBE4:
  81              	.LBB5:
 251:Src/main.c    ****   __HAL_RCC_GPIOB_CLK_ENABLE();
  82              		.loc 1 251 0
  83 0048 5A69     		ldr	r2, [r3, #20]
  84 004a 42F48022 		orr	r2, r2, #262144
  85 004e 5A61     		str	r2, [r3, #20]
  86 0050 5B69     		ldr	r3, [r3, #20]
  87 0052 03F48023 		and	r3, r3, #262144
  88 0056 0493     		str	r3, [sp, #16]
  89 0058 049B     		ldr	r3, [sp, #16]
  90              	.LBE5:
 252:Src/main.c    **** 
 253:Src/main.c    ****   /*Configure GPIO pin Output Level */
ARM GAS  D:\Programme\Cygwin\tmp\ccvJI6eq.s 			page 7


 254:Src/main.c    ****   HAL_GPIO_WritePin(LD2_GPIO_Port, LD2_Pin, GPIO_PIN_RESET);
  91              		.loc 1 254 0
  92 005a 0F4D     		ldr	r5, .L3+4
  93 005c 2246     		mov	r2, r4
  94 005e 4FF40051 		mov	r1, #8192
  95 0062 2846     		mov	r0, r5
  96 0064 FFF7FEFF 		bl	HAL_GPIO_WritePin
  97              	.LVL0:
 255:Src/main.c    **** 
 256:Src/main.c    ****   /*Configure GPIO pin : B1_Pin */
 257:Src/main.c    ****   GPIO_InitStruct.Pin = B1_Pin;
  98              		.loc 1 257 0
  99 0068 4FF40056 		mov	r6, #8192
 100 006c 0596     		str	r6, [sp, #20]
 258:Src/main.c    ****   GPIO_InitStruct.Mode = GPIO_MODE_IT_FALLING;
 101              		.loc 1 258 0
 102 006e 0B4B     		ldr	r3, .L3+8
 103 0070 0693     		str	r3, [sp, #24]
 259:Src/main.c    ****   GPIO_InitStruct.Pull = GPIO_NOPULL;
 104              		.loc 1 259 0
 105 0072 0794     		str	r4, [sp, #28]
 260:Src/main.c    ****   HAL_GPIO_Init(B1_GPIO_Port, &GPIO_InitStruct);
 106              		.loc 1 260 0
 107 0074 05A9     		add	r1, sp, #20
 108 0076 0A48     		ldr	r0, .L3+12
 109 0078 FFF7FEFF 		bl	HAL_GPIO_Init
 110              	.LVL1:
 261:Src/main.c    **** 
 262:Src/main.c    ****   /*Configure GPIO pin : LD2_Pin */
 263:Src/main.c    ****   GPIO_InitStruct.Pin = LD2_Pin;
 111              		.loc 1 263 0
 112 007c 0596     		str	r6, [sp, #20]
 264:Src/main.c    ****   GPIO_InitStruct.Mode = GPIO_MODE_OUTPUT_PP;
 113              		.loc 1 264 0
 114 007e 0123     		movs	r3, #1
 115 0080 0693     		str	r3, [sp, #24]
 265:Src/main.c    ****   GPIO_InitStruct.Pull = GPIO_NOPULL;
 116              		.loc 1 265 0
 117 0082 0794     		str	r4, [sp, #28]
 266:Src/main.c    ****   GPIO_InitStruct.Speed = GPIO_SPEED_FREQ_LOW;
 118              		.loc 1 266 0
 119 0084 0894     		str	r4, [sp, #32]
 267:Src/main.c    ****   HAL_GPIO_Init(LD2_GPIO_Port, &GPIO_InitStruct);
 120              		.loc 1 267 0
 121 0086 05A9     		add	r1, sp, #20
 122 0088 2846     		mov	r0, r5
 123 008a FFF7FEFF 		bl	HAL_GPIO_Init
 124              	.LVL2:
 268:Src/main.c    **** 
 269:Src/main.c    **** }
 125              		.loc 1 269 0
 126 008e 0AB0     		add	sp, sp, #40
 127              	.LCFI2:
 128              		.cfi_def_cfa_offset 16
 129              		@ sp needed
 130 0090 70BD     		pop	{r4, r5, r6, pc}
 131              	.L4:
ARM GAS  D:\Programme\Cygwin\tmp\ccvJI6eq.s 			page 8


 132 0092 00BF     		.align	2
 133              	.L3:
 134 0094 00100240 		.word	1073876992
 135 0098 00040048 		.word	1207960576
 136 009c 00002110 		.word	270598144
 137 00a0 00080048 		.word	1207961600
 138              		.cfi_endproc
 139              	.LFE130:
 141              		.section	.text.MX_USART2_UART_Init,"ax",%progbits
 142              		.align	2
 143              		.thumb
 144              		.thumb_func
 146              	MX_USART2_UART_Init:
 147              	.LFB129:
 209:Src/main.c    **** 
 148              		.loc 1 209 0
 149              		.cfi_startproc
 150              		@ args = 0, pretend = 0, frame = 0
 151              		@ frame_needed = 0, uses_anonymous_args = 0
 152 0000 08B5     		push	{r3, lr}
 153              	.LCFI3:
 154              		.cfi_def_cfa_offset 8
 155              		.cfi_offset 3, -8
 156              		.cfi_offset 14, -4
 218:Src/main.c    ****   huart2.Init.BaudRate = 38400;
 157              		.loc 1 218 0
 158 0002 0948     		ldr	r0, .L7
 159 0004 094B     		ldr	r3, .L7+4
 160 0006 0360     		str	r3, [r0]
 219:Src/main.c    ****   huart2.Init.WordLength = UART_WORDLENGTH_8B;
 161              		.loc 1 219 0
 162 0008 4FF41643 		mov	r3, #38400
 163 000c 4360     		str	r3, [r0, #4]
 220:Src/main.c    ****   huart2.Init.StopBits = UART_STOPBITS_1;
 164              		.loc 1 220 0
 165 000e 0023     		movs	r3, #0
 166 0010 8360     		str	r3, [r0, #8]
 221:Src/main.c    ****   huart2.Init.Parity = UART_PARITY_NONE;
 167              		.loc 1 221 0
 168 0012 C360     		str	r3, [r0, #12]
 222:Src/main.c    ****   huart2.Init.Mode = UART_MODE_TX_RX;
 169              		.loc 1 222 0
 170 0014 0361     		str	r3, [r0, #16]
 223:Src/main.c    ****   huart2.Init.HwFlowCtl = UART_HWCONTROL_NONE;
 171              		.loc 1 223 0
 172 0016 0C22     		movs	r2, #12
 173 0018 4261     		str	r2, [r0, #20]
 224:Src/main.c    ****   huart2.Init.OverSampling = UART_OVERSAMPLING_16;
 174              		.loc 1 224 0
 175 001a 8361     		str	r3, [r0, #24]
 225:Src/main.c    ****   huart2.Init.OneBitSampling = UART_ONE_BIT_SAMPLE_DISABLE;
 176              		.loc 1 225 0
 177 001c C361     		str	r3, [r0, #28]
 226:Src/main.c    ****   huart2.AdvancedInit.AdvFeatureInit = UART_ADVFEATURE_NO_INIT;
 178              		.loc 1 226 0
 179 001e 0362     		str	r3, [r0, #32]
 227:Src/main.c    ****   if (HAL_UART_Init(&huart2) != HAL_OK)
ARM GAS  D:\Programme\Cygwin\tmp\ccvJI6eq.s 			page 9


 180              		.loc 1 227 0
 181 0020 4362     		str	r3, [r0, #36]
 228:Src/main.c    ****   {
 182              		.loc 1 228 0
 183 0022 FFF7FEFF 		bl	HAL_UART_Init
 184              	.LVL3:
 185 0026 08BD     		pop	{r3, pc}
 186              	.L8:
 187              		.align	2
 188              	.L7:
 189 0028 00000000 		.word	huart2
 190 002c 00440040 		.word	1073759232
 191              		.cfi_endproc
 192              	.LFE129:
 194              		.section	.text.StartComUSBTask,"ax",%progbits
 195              		.align	2
 196              		.global	StartComUSBTask
 197              		.thumb
 198              		.thumb_func
 200              	StartComUSBTask:
 201              	.LFB131:
 270:Src/main.c    **** 
 271:Src/main.c    **** /* USER CODE BEGIN 4 */
 272:Src/main.c    **** void StartComUSBTask(void *argument)
 273:Src/main.c    **** {
 202              		.loc 1 273 0
 203              		.cfi_startproc
 204              		@ Volatile: function does not return.
 205              		@ args = 0, pretend = 0, frame = 0
 206              		@ frame_needed = 0, uses_anonymous_args = 0
 207              	.LVL4:
 208 0000 08B5     		push	{r3, lr}
 209              	.LCFI4:
 210              		.cfi_def_cfa_offset 8
 211              		.cfi_offset 3, -8
 212              		.cfi_offset 14, -4
 213              	.LVL5:
 214              	.L10:
 274:Src/main.c    **** #ifdef __UTEST
 275:Src/main.c    ****   //uint8_t txBuf[9] = "Unit-T\n\r";
 276:Src/main.c    **** #else
 277:Src/main.c    ****   //uint8_t txBuf[9] = "Normal\n\r";
 278:Src/main.c    **** #endif
 279:Src/main.c    ****   for(;;)
 280:Src/main.c    ****   {
 281:Src/main.c    ****     //HAL_UART_Transmit(&huart2,txBuf,9,500);
 282:Src/main.c    ****     osDelay(1000);
 215              		.loc 1 282 0 discriminator 1
 216 0002 4FF47A70 		mov	r0, #1000
 217 0006 FFF7FEFF 		bl	osDelay
 218              	.LVL6:
 219 000a FAE7     		b	.L10
 220              		.cfi_endproc
 221              	.LFE131:
 223              		.section	.text.StartDefaultTask,"ax",%progbits
 224              		.align	2
 225              		.global	StartDefaultTask
ARM GAS  D:\Programme\Cygwin\tmp\ccvJI6eq.s 			page 10


 226              		.thumb
 227              		.thumb_func
 229              	StartDefaultTask:
 230              	.LFB132:
 283:Src/main.c    ****   }
 284:Src/main.c    **** }
 285:Src/main.c    **** 
 286:Src/main.c    **** /* USER CODE END 4 */
 287:Src/main.c    **** 
 288:Src/main.c    **** /* USER CODE BEGIN Header_StartDefaultTask */
 289:Src/main.c    **** /**
 290:Src/main.c    ****   * @brief  Function implementing the defaultTask thread.
 291:Src/main.c    ****   * @param  argument: Not used 
 292:Src/main.c    ****   * @retval None
 293:Src/main.c    ****   */
 294:Src/main.c    **** /* USER CODE END Header_StartDefaultTask */
 295:Src/main.c    **** void StartDefaultTask(void *argument)
 296:Src/main.c    **** {
 231              		.loc 1 296 0
 232              		.cfi_startproc
 233              		@ Volatile: function does not return.
 234              		@ args = 0, pretend = 0, frame = 0
 235              		@ frame_needed = 0, uses_anonymous_args = 0
 236              	.LVL7:
 237 0000 08B5     		push	{r3, lr}
 238              	.LCFI5:
 239              		.cfi_def_cfa_offset 8
 240              		.cfi_offset 3, -8
 241              		.cfi_offset 14, -4
 242              	.LVL8:
 243              	.L13:
 297:Src/main.c    ****   /* USER CODE BEGIN 5 */
 298:Src/main.c    ****   /* Infinite loop */  
 299:Src/main.c    ****   for(;;)
 300:Src/main.c    ****   {
 301:Src/main.c    ****     osDelay(1);
 244              		.loc 1 301 0 discriminator 1
 245 0002 0120     		movs	r0, #1
 246 0004 FFF7FEFF 		bl	osDelay
 247              	.LVL9:
 248 0008 FBE7     		b	.L13
 249              		.cfi_endproc
 250              	.LFE132:
 252 000a 00BF     		.section	.text.StartTask02,"ax",%progbits
 253              		.align	2
 254              		.global	StartTask02
 255              		.thumb
 256              		.thumb_func
 258              	StartTask02:
 259              	.LFB133:
 302:Src/main.c    ****   }
 303:Src/main.c    ****   /* USER CODE END 5 */ 
 304:Src/main.c    **** }
 305:Src/main.c    **** 
 306:Src/main.c    **** /* USER CODE BEGIN Header_StartTask02 */
 307:Src/main.c    **** /**
 308:Src/main.c    **** * @brief Function implementing the blinkLEDTask thread.
ARM GAS  D:\Programme\Cygwin\tmp\ccvJI6eq.s 			page 11


 309:Src/main.c    **** * @param argument: Not used
 310:Src/main.c    **** * @retval None
 311:Src/main.c    **** */
 312:Src/main.c    **** /* USER CODE END Header_StartTask02 */
 313:Src/main.c    **** void StartTask02(void *argument)
 314:Src/main.c    **** {
 260              		.loc 1 314 0
 261              		.cfi_startproc
 262              		@ Volatile: function does not return.
 263              		@ args = 0, pretend = 0, frame = 0
 264              		@ frame_needed = 0, uses_anonymous_args = 0
 265              	.LVL10:
 266 0000 08B5     		push	{r3, lr}
 267              	.LCFI6:
 268              		.cfi_def_cfa_offset 8
 269              		.cfi_offset 3, -8
 270              		.cfi_offset 14, -4
 271              	.LVL11:
 272              	.L16:
 315:Src/main.c    ****   /* USER CODE BEGIN StartTask02 */
 316:Src/main.c    ****   /* Infinite loop */
 317:Src/main.c    ****   for(;;)
 318:Src/main.c    ****   {
 319:Src/main.c    ****     HAL_GPIO_TogglePin(LD2_GPIO_Port,LD2_Pin);
 273              		.loc 1 319 0 discriminator 1
 274 0002 4FF40051 		mov	r1, #8192
 275 0006 0348     		ldr	r0, .L18
 276 0008 FFF7FEFF 		bl	HAL_GPIO_TogglePin
 277              	.LVL12:
 320:Src/main.c    ****     osDelay(200);
 278              		.loc 1 320 0 discriminator 1
 279 000c C820     		movs	r0, #200
 280 000e FFF7FEFF 		bl	osDelay
 281              	.LVL13:
 282 0012 F6E7     		b	.L16
 283              	.L19:
 284              		.align	2
 285              	.L18:
 286 0014 00040048 		.word	1207960576
 287              		.cfi_endproc
 288              	.LFE133:
 290              		.section	.text.SystemClock_Config,"ax",%progbits
 291              		.align	2
 292              		.global	SystemClock_Config
 293              		.thumb
 294              		.thumb_func
 296              	SystemClock_Config:
 297              	.LFB128:
 172:Src/main.c    ****   RCC_OscInitTypeDef RCC_OscInitStruct = {0};
 298              		.loc 1 172 0
 299              		.cfi_startproc
 300              		@ args = 0, pretend = 0, frame = 64
 301              		@ frame_needed = 0, uses_anonymous_args = 0
 302 0000 30B5     		push	{r4, r5, lr}
 303              	.LCFI7:
 304              		.cfi_def_cfa_offset 12
 305              		.cfi_offset 4, -12
ARM GAS  D:\Programme\Cygwin\tmp\ccvJI6eq.s 			page 12


 306              		.cfi_offset 5, -8
 307              		.cfi_offset 14, -4
 308 0002 91B0     		sub	sp, sp, #68
 309              	.LCFI8:
 310              		.cfi_def_cfa_offset 80
 173:Src/main.c    ****   RCC_ClkInitTypeDef RCC_ClkInitStruct = {0};
 311              		.loc 1 173 0
 312 0004 2822     		movs	r2, #40
 313 0006 0021     		movs	r1, #0
 314 0008 06A8     		add	r0, sp, #24
 315 000a FFF7FEFF 		bl	memset
 316              	.LVL14:
 174:Src/main.c    **** 
 317              		.loc 1 174 0
 318 000e 0024     		movs	r4, #0
 319 0010 0194     		str	r4, [sp, #4]
 320 0012 0294     		str	r4, [sp, #8]
 321 0014 0394     		str	r4, [sp, #12]
 322 0016 0494     		str	r4, [sp, #16]
 323 0018 0594     		str	r4, [sp, #20]
 178:Src/main.c    ****   RCC_OscInitStruct.HSIState = RCC_HSI_ON;
 324              		.loc 1 178 0
 325 001a 0225     		movs	r5, #2
 326 001c 0695     		str	r5, [sp, #24]
 179:Src/main.c    ****   RCC_OscInitStruct.HSICalibrationValue = RCC_HSICALIBRATION_DEFAULT;
 327              		.loc 1 179 0
 328 001e 0123     		movs	r3, #1
 329 0020 0A93     		str	r3, [sp, #40]
 180:Src/main.c    ****   RCC_OscInitStruct.PLL.PLLState = RCC_PLL_ON;
 330              		.loc 1 180 0
 331 0022 1023     		movs	r3, #16
 332 0024 0B93     		str	r3, [sp, #44]
 181:Src/main.c    ****   RCC_OscInitStruct.PLL.PLLSource = RCC_PLLSOURCE_HSI;
 333              		.loc 1 181 0
 334 0026 0D95     		str	r5, [sp, #52]
 183:Src/main.c    ****   if (HAL_RCC_OscConfig(&RCC_OscInitStruct) != HAL_OK)
 335              		.loc 1 183 0
 336 0028 4FF46013 		mov	r3, #3670016
 337 002c 0F93     		str	r3, [sp, #60]
 184:Src/main.c    ****   {
 338              		.loc 1 184 0
 339 002e 06A8     		add	r0, sp, #24
 340 0030 FFF7FEFF 		bl	HAL_RCC_OscConfig
 341              	.LVL15:
 190:Src/main.c    ****                               |RCC_CLOCKTYPE_PCLK1|RCC_CLOCKTYPE_PCLK2;
 342              		.loc 1 190 0
 343 0034 0F23     		movs	r3, #15
 344 0036 0193     		str	r3, [sp, #4]
 192:Src/main.c    ****   RCC_ClkInitStruct.AHBCLKDivider = RCC_SYSCLK_DIV1;
 345              		.loc 1 192 0
 346 0038 0295     		str	r5, [sp, #8]
 193:Src/main.c    ****   RCC_ClkInitStruct.APB1CLKDivider = RCC_HCLK_DIV2;
 347              		.loc 1 193 0
 348 003a 0394     		str	r4, [sp, #12]
 194:Src/main.c    ****   RCC_ClkInitStruct.APB2CLKDivider = RCC_HCLK_DIV1;
 349              		.loc 1 194 0
 350 003c 4FF48063 		mov	r3, #1024
ARM GAS  D:\Programme\Cygwin\tmp\ccvJI6eq.s 			page 13


 351 0040 0493     		str	r3, [sp, #16]
 195:Src/main.c    **** 
 352              		.loc 1 195 0
 353 0042 0594     		str	r4, [sp, #20]
 197:Src/main.c    ****   {
 354              		.loc 1 197 0
 355 0044 2946     		mov	r1, r5
 356 0046 01A8     		add	r0, sp, #4
 357 0048 FFF7FEFF 		bl	HAL_RCC_ClockConfig
 358              	.LVL16:
 201:Src/main.c    **** 
 359              		.loc 1 201 0
 360 004c 11B0     		add	sp, sp, #68
 361              	.LCFI9:
 362              		.cfi_def_cfa_offset 12
 363              		@ sp needed
 364 004e 30BD     		pop	{r4, r5, pc}
 365              		.cfi_endproc
 366              	.LFE128:
 368              		.section	.text.main,"ax",%progbits
 369              		.align	2
 370              		.global	main
 371              		.thumb
 372              		.thumb_func
 374              	main:
 375              	.LFB127:
  91:Src/main.c    ****   /* USER CODE BEGIN 1 */
 376              		.loc 1 91 0
 377              		.cfi_startproc
 378              		@ Volatile: function does not return.
 379              		@ args = 0, pretend = 0, frame = 0
 380              		@ frame_needed = 0, uses_anonymous_args = 0
 381 0000 08B5     		push	{r3, lr}
 382              	.LCFI10:
 383              		.cfi_def_cfa_offset 8
 384              		.cfi_offset 3, -8
 385              		.cfi_offset 14, -4
 100:Src/main.c    **** 
 386              		.loc 1 100 0
 387 0002 FFF7FEFF 		bl	HAL_Init
 388              	.LVL17:
 107:Src/main.c    **** 
 389              		.loc 1 107 0
 390 0006 FFF7FEFF 		bl	SystemClock_Config
 391              	.LVL18:
 114:Src/main.c    ****   MX_USART2_UART_Init();
 392              		.loc 1 114 0
 393 000a FFF7FEFF 		bl	MX_GPIO_Init
 394              	.LVL19:
 115:Src/main.c    ****   /* USER CODE BEGIN 2 */
 395              		.loc 1 115 0
 396 000e FFF7FEFF 		bl	MX_USART2_UART_Init
 397              	.LVL20:
 120:Src/main.c    **** 
 398              		.loc 1 120 0
 399 0012 FFF7FEFF 		bl	osKernelInitialize
 400              	.LVL21:
ARM GAS  D:\Programme\Cygwin\tmp\ccvJI6eq.s 			page 14


 140:Src/main.c    **** 
 401              		.loc 1 140 0
 402 0016 0C4A     		ldr	r2, .L25
 403 0018 0021     		movs	r1, #0
 404 001a 0C48     		ldr	r0, .L25+4
 405 001c FFF7FEFF 		bl	osThreadNew
 406              	.LVL22:
 407 0020 0B4B     		ldr	r3, .L25+8
 408 0022 1860     		str	r0, [r3]
 143:Src/main.c    **** 
 409              		.loc 1 143 0
 410 0024 0B4A     		ldr	r2, .L25+12
 411 0026 0021     		movs	r1, #0
 412 0028 0B48     		ldr	r0, .L25+16
 413 002a FFF7FEFF 		bl	osThreadNew
 414              	.LVL23:
 415 002e 0B4B     		ldr	r3, .L25+20
 416 0030 1860     		str	r0, [r3]
 147:Src/main.c    **** 
 417              		.loc 1 147 0
 418 0032 0B4A     		ldr	r2, .L25+24
 419 0034 0021     		movs	r1, #0
 420 0036 0B48     		ldr	r0, .L25+28
 421 0038 FFF7FEFF 		bl	osThreadNew
 422              	.LVL24:
 423 003c 0A4B     		ldr	r3, .L25+32
 424 003e 1860     		str	r0, [r3]
 152:Src/main.c    ****  
 425              		.loc 1 152 0
 426 0040 FFF7FEFF 		bl	osKernelStart
 427              	.LVL25:
 428              	.L23:
 429 0044 FEE7     		b	.L23
 430              	.L26:
 431 0046 00BF     		.align	2
 432              	.L25:
 433 0048 00000000 		.word	.LANCHOR0
 434 004c 00000000 		.word	StartDefaultTask
 435 0050 00000000 		.word	defaultTaskHandle
 436 0054 00000000 		.word	.LANCHOR1
 437 0058 00000000 		.word	StartTask02
 438 005c 00000000 		.word	blinkLEDTaskHandle
 439 0060 00000000 		.word	.LANCHOR2
 440 0064 00000000 		.word	StartComUSBTask
 441 0068 00000000 		.word	comUSBTaskHandle
 442              		.cfi_endproc
 443              	.LFE127:
 445              		.section	.text.HAL_TIM_PeriodElapsedCallback,"ax",%progbits
 446              		.align	2
 447              		.global	HAL_TIM_PeriodElapsedCallback
 448              		.thumb
 449              		.thumb_func
 451              	HAL_TIM_PeriodElapsedCallback:
 452              	.LFB134:
 321:Src/main.c    ****   }
 322:Src/main.c    ****   /* USER CODE END StartTask02 */
 323:Src/main.c    **** }
ARM GAS  D:\Programme\Cygwin\tmp\ccvJI6eq.s 			page 15


 324:Src/main.c    **** 
 325:Src/main.c    **** /**
 326:Src/main.c    ****   * @brief  Period elapsed callback in non blocking mode
 327:Src/main.c    ****   * @note   This function is called  when TIM1 interrupt took place, inside
 328:Src/main.c    ****   * HAL_TIM_IRQHandler(). It makes a direct call to HAL_IncTick() to increment
 329:Src/main.c    ****   * a global variable "uwTick" used as application time base.
 330:Src/main.c    ****   * @param  htim : TIM handle
 331:Src/main.c    ****   * @retval None
 332:Src/main.c    ****   */
 333:Src/main.c    **** void HAL_TIM_PeriodElapsedCallback(TIM_HandleTypeDef *htim)
 334:Src/main.c    **** {
 453              		.loc 1 334 0
 454              		.cfi_startproc
 455              		@ args = 0, pretend = 0, frame = 0
 456              		@ frame_needed = 0, uses_anonymous_args = 0
 457              	.LVL26:
 458 0000 08B5     		push	{r3, lr}
 459              	.LCFI11:
 460              		.cfi_def_cfa_offset 8
 461              		.cfi_offset 3, -8
 462              		.cfi_offset 14, -4
 335:Src/main.c    ****   /* USER CODE BEGIN Callback 0 */
 336:Src/main.c    **** 
 337:Src/main.c    ****   /* USER CODE END Callback 0 */
 338:Src/main.c    ****   if (htim->Instance == TIM1) {
 463              		.loc 1 338 0
 464 0002 0268     		ldr	r2, [r0]
 465 0004 024B     		ldr	r3, .L30
 466 0006 9A42     		cmp	r2, r3
 467 0008 01D1     		bne	.L27
 339:Src/main.c    ****     HAL_IncTick();
 468              		.loc 1 339 0
 469 000a FFF7FEFF 		bl	HAL_IncTick
 470              	.LVL27:
 471              	.L27:
 472 000e 08BD     		pop	{r3, pc}
 473              	.L31:
 474              		.align	2
 475              	.L30:
 476 0010 002C0140 		.word	1073818624
 477              		.cfi_endproc
 478              	.LFE134:
 480              		.section	.text.Error_Handler,"ax",%progbits
 481              		.align	2
 482              		.global	Error_Handler
 483              		.thumb
 484              		.thumb_func
 486              	Error_Handler:
 487              	.LFB135:
 340:Src/main.c    ****   }
 341:Src/main.c    ****   /* USER CODE BEGIN Callback 1 */
 342:Src/main.c    **** 
 343:Src/main.c    ****   /* USER CODE END Callback 1 */
 344:Src/main.c    **** }
 345:Src/main.c    **** 
 346:Src/main.c    **** /**
 347:Src/main.c    ****   * @brief  This function is executed in case of error occurrence.
ARM GAS  D:\Programme\Cygwin\tmp\ccvJI6eq.s 			page 16


 348:Src/main.c    ****   * @retval None
 349:Src/main.c    ****   */
 350:Src/main.c    **** void Error_Handler(void)
 351:Src/main.c    **** {
 488              		.loc 1 351 0
 489              		.cfi_startproc
 490              		@ args = 0, pretend = 0, frame = 0
 491              		@ frame_needed = 0, uses_anonymous_args = 0
 492              		@ link register save eliminated.
 493 0000 7047     		bx	lr
 494              		.cfi_endproc
 495              	.LFE135:
 497              		.global	comUSBTask_attributes
 498              		.comm	comUSBTaskHandle,4,4
 499              		.global	blinkLEDTask_attributes
 500              		.comm	blinkLEDTaskHandle,4,4
 501              		.global	defaultTask_attributes
 502              		.comm	defaultTaskHandle,4,4
 503              		.comm	huart2,128,4
 504 0002 00BF     		.section	.rodata.defaultTask_attributes,"a",%progbits
 505              		.align	2
 506              		.set	.LANCHOR0,. + 0
 509              	defaultTask_attributes:
 510 0000 1C000000 		.word	.LC2
 511 0004 00000000 		.space	16
 511      00000000 
 511      00000000 
 511      00000000 
 512 0014 80000000 		.word	128
 513 0018 18000000 		.word	24
 514 001c 00000000 		.space	8
 514      00000000 
 515              		.section	.rodata.blinkLEDTask_attributes,"a",%progbits
 516              		.align	2
 517              		.set	.LANCHOR1,. + 0
 520              	blinkLEDTask_attributes:
 521 0000 0C000000 		.word	.LC1
 522 0004 00000000 		.space	16
 522      00000000 
 522      00000000 
 522      00000000 
 523 0014 80000000 		.word	128
 524 0018 19000000 		.word	25
 525 001c 00000000 		.space	8
 525      00000000 
 526              		.section	.rodata.str1.4,"aMS",%progbits,1
 527              		.align	2
 528              	.LC0:
 529 0000 636F6D55 		.ascii	"comUSBTask\000"
 529      53425461 
 529      736B00
 530 000b 00       		.space	1
 531              	.LC1:
 532 000c 626C696E 		.ascii	"blinkLEDTask\000"
 532      6B4C4544 
 532      5461736B 
 532      00
ARM GAS  D:\Programme\Cygwin\tmp\ccvJI6eq.s 			page 17


 533 0019 000000   		.space	3
 534              	.LC2:
 535 001c 64656661 		.ascii	"defaultTask\000"
 535      756C7454 
 535      61736B00 
 536              		.section	.rodata.comUSBTask_attributes,"a",%progbits
 537              		.align	2
 538              		.set	.LANCHOR2,. + 0
 541              	comUSBTask_attributes:
 542 0000 00000000 		.word	.LC0
 543 0004 00000000 		.space	16
 543      00000000 
 543      00000000 
 543      00000000 
 544 0014 80000000 		.word	128
 545 0018 19000000 		.word	25
 546 001c 00000000 		.space	8
 546      00000000 
 547              		.text
 548              	.Letext0:
 549              		.file 2 "d:\\tool_chain\\gcc-arm-none-eabi\\5.4 2016q3\\arm-none-eabi\\include\\machine\\_default_
 550              		.file 3 "d:\\tool_chain\\gcc-arm-none-eabi\\5.4 2016q3\\arm-none-eabi\\include\\sys\\_stdint.h"
 551              		.file 4 "Drivers/CMSIS/Device/ST/STM32F3xx/Include/stm32f302x8.h"
 552              		.file 5 "Drivers/STM32F3xx_HAL_Driver/Inc/stm32f3xx_hal_def.h"
 553              		.file 6 "Drivers/STM32F3xx_HAL_Driver/Inc/stm32f3xx_hal_rcc.h"
 554              		.file 7 "Drivers/STM32F3xx_HAL_Driver/Inc/stm32f3xx_hal_gpio.h"
 555              		.file 8 "Drivers/STM32F3xx_HAL_Driver/Inc/stm32f3xx_hal_dma.h"
 556              		.file 9 "Drivers/STM32F3xx_HAL_Driver/Inc/stm32f3xx_hal_tim.h"
 557              		.file 10 "Drivers/STM32F3xx_HAL_Driver/Inc/stm32f3xx_hal_uart.h"
 558              		.file 11 "Middlewares/Third_Party/FreeRTOS/Source/CMSIS_RTOS_V2/cmsis_os2.h"
 559              		.file 12 "Drivers/CMSIS/Include/core_cm4.h"
 560              		.file 13 "Drivers/STM32F3xx_HAL_Driver/Inc/stm32f3xx_hal.h"
ARM GAS  D:\Programme\Cygwin\tmp\ccvJI6eq.s 			page 18

